; Function Attrs: mustprogress uwtable
define dso_local void @_ZN5cmsys9Directory5ClearEv(ptr noundef nonnull readonly align 8 captures(none) dereferenceable(8) %0) local_unnamed_addr #3 align 2 personality ptr @__gxx_personality_v0 {
  %2 = load ptr, ptr %0, align 8, !tbaa !14
  %3 = getelementptr inbounds nuw i8, ptr %2, i64 24
  tail call void @_ZNSt7__cxx1112basic_stringIcSt11char_traitsIcESaIcEE6resizeEmc(ptr noundef nonnull align 8 dereferenceable(32) %3, i64 noundef 0, i8 noundef signext 0)
  %4 = load ptr, ptr %0, align 8, !tbaa !14
  %5 = load ptr, ptr %4, align 8, !tbaa !19
  %6 = getelementptr inbounds nuw i8, ptr %4, i64 8
  %7 = load ptr, ptr %6, align 8, !tbaa !22
  %.not.i.i = icmp eq ptr %7, %5
  br i1 %.not.i.i, label %_ZNSt6vectorIN5cmsys18DirectoryInternals8FileDataESaIS2_EE5clearEv.exit, label %.lr.ph.i.i.i.i.i

.lr.ph.i.i.i.i.i:                                 ; preds = %1, %_ZSt8_DestroyIN5cmsys18DirectoryInternals8FileDataEEvPT_.exit.i.i.i.i.i
  %.05.i.i.i.i.i = phi ptr [ %16, %_ZSt8_DestroyIN5cmsys18DirectoryInternals8FileDataEEvPT_.exit.i.i.i.i.i ], [ %5, %1 ]
  %8 = load ptr, ptr %.05.i.i.i.i.i, align 8, !tbaa !18
  %9 = getelementptr inbounds nuw i8, ptr %.05.i.i.i.i.i, i64 16
  %10 = icmp eq ptr %8, %9
  br i1 %10, label %_ZNKSt7__cxx1112basic_stringIcSt11char_traitsIcESaIcEE11_M_is_localEv.exit.thread.i.i.i.i.i.i.i.i.i, label %_ZNKSt7__cxx1112basic_stringIcSt11char_traitsIcESaIcEE11_M_is_localEv.exit.i.i.i.i.i.i.i.i.i

_ZNKSt7__cxx1112basic_stringIcSt11char_traitsIcESaIcEE11_M_is_localEv.exit.thread.i.i.i.i.i.i.i.i.i: ; preds = %.lr.ph.i.i.i.i.i
  %11 = getelementptr inbounds nuw i8, ptr %.05.i.i.i.i.i, i64 8
  %12 = load i64, ptr %11, align 8, !tbaa !10
  %13 = icmp ult i64 %12, 16
  tail call void @llvm.assume(i1 %13)
  br label %_ZSt8_DestroyIN5cmsys18DirectoryInternals8FileDataEEvPT_.exit.i.i.i.i.i

_ZNKSt7__cxx1112basic_stringIcSt11char_traitsIcESaIcEE11_M_is_localEv.exit.i.i.i.i.i.i.i.i.i: ; preds = %.lr.ph.i.i.i.i.i
  %14 = load i64, ptr %9, align 8, !tbaa !13
  %15 = add i64 %14, 1
  tail call void @_ZdlPvm(ptr noundef %8, i64 noundef %15) #23
  br label %_ZSt8_DestroyIN5cmsys18DirectoryInternals8FileDataEEvPT_.exit.i.i.i.i.i

_ZSt8_DestroyIN5cmsys18DirectoryInternals8FileDataEEvPT_.exit.i.i.i.i.i: ; preds = %_ZNKSt7__cxx1112basic_stringIcSt11char_traitsIcESaIcEE11_M_is_localEv.exit.i.i.i.i.i.i.i.i.i, %_ZNKSt7__cxx1112basic_stringIcSt11char_traitsIcESaIcEE11_M_is_localEv.exit.thread.i.i.i.i.i.i.i.i.i
  %16 = getelementptr inbounds nuw i8, ptr %.05.i.i.i.i.i, i64 32
  %.not.i.i.i.i.i = icmp eq ptr %16, %7
  br i1 %.not.i.i.i.i.i, label %_ZSt8_DestroyIPN5cmsys18DirectoryInternals8FileDataES2_EvT_S4_RSaIT0_E.exit.i.i, label %.lr.ph.i.i.i.i.i, !llvm.loop !23

_ZSt8_DestroyIPN5cmsys18DirectoryInternals8FileDataES2_EvT_S4_RSaIT0_E.exit.i.i: ; preds = %_ZSt8_DestroyIN5cmsys18DirectoryInternals8FileDataEEvPT_.exit.i.i.i.i.i
  store ptr %5, ptr %6, align 8, !tbaa !22
  br label %_ZNSt6vectorIN5cmsys18DirectoryInternals8FileDataESaIS2_EE5clearEv.exit

_ZNSt6vectorIN5cmsys18DirectoryInternals8FileDataESaIS2_EE5clearEv.exit: ; preds = %1, %_ZSt8_DestroyIPN5cmsys18DirectoryInternals8FileDataES2_EvT_S4_RSaIT0_E.exit.i.i
  ret void
}